target datalayout = "e-m:e-p270:32:32-p271:32:32-p272:64:64-i64:64-i128:128-f80:128-n8:16:32:64-S128"
target triple = "x86_64-pc-linux-gnu"

%struct._zend_llist = type { ptr, ptr, i64, i64, ptr, i8, ptr }
%struct._zval_struct = type { %union._zend_value, %union.anon, %union.anon.2 }
%union._zend_value = type { i64 }
%union.anon = type { i32 }
%union.anon.2 = type { i32 }
%struct._zend_stack = type { i32, i32, i32, ptr }
%struct._zend_array = type { %struct._zend_refcounted_h, %union.anon.4, i32, %union.anon.6, i32, i32, i32, i32, i64, ptr }
%struct._zend_refcounted_h = type { i32, %union.anon.3 }
%union.anon.3 = type { i32 }
%union.anon.4 = type { i32 }
%union.anon.6 = type { ptr }
%struct._zend_compiler_globals = type { %struct._zend_stack, ptr, ptr, i32, ptr, ptr, ptr, ptr, i8, i8, i8, i8, i8, %struct._zend_llist, ptr, i8, i8, i8, i8, ptr, i32, i32, %struct._zend_oparray_context, %struct._zend_file_context, ptr, %struct._zend_array, ptr, i64, i8, i8, i8, ptr, ptr, %struct._zend_stack, ptr, i32, ptr, ptr, i64, i64, ptr, ptr, ptr, ptr, i32, ptr, i32, %struct._zend_stack }
%struct._zend_oparray_context = type { ptr, ptr, i32, i32, i32, i32, i32, i32, i32, ptr, ptr, ptr, i32, i8 }
%struct._zend_file_context = type { %struct._zend_declarables, ptr, i8, i8, ptr, ptr, ptr, %struct._zend_array }
%struct._zend_declarables = type { i64 }
%struct.anon.7 = type { i8, [3 x i8], i32, ptr, ptr, ptr, i32, i32, ptr, ptr, ptr, ptr, i32, ptr }
%struct._zend_execute_data = type { ptr, ptr, ptr, ptr, %struct._zval_struct, ptr, ptr, ptr, ptr }

@zend_observer_fcall_op_array_extension = dso_local global i32 0, align 4
@zend_observer_fcall_internal_function_extension = dso_local global i32 0, align 4
@compiler_globals = external global %struct._zend_compiler_globals, align 8

; Function Attrs: alwaysinline nounwind uwtable
define internal zeroext i1 @zend_observer_handler_is_unobserved(ptr noundef %0) #3 {
  %2 = alloca ptr, align 8
  store ptr %0, ptr %2, align 8, !tbaa !4
  %3 = load ptr, ptr %2, align 8, !tbaa !4
  %4 = load ptr, ptr %3, align 8, !tbaa !4
  %5 = icmp eq ptr %4, inttoptr (i64 3 to ptr)
  ret i1 %5
}

; Function Attrs: alwaysinline nounwind uwtable
define internal zeroext i1 @zend_observer_fcall_has_no_observers(ptr noundef %0, i1 noundef zeroext %1, ptr noundef %2) #3 {
  %4 = alloca i1, align 1
  %5 = alloca ptr, align 8
  %6 = alloca i8, align 1
  %7 = alloca ptr, align 8
  %8 = alloca ptr, align 8
  %9 = alloca ptr, align 8
  %10 = alloca i32, align 4
  store ptr %0, ptr %5, align 8, !tbaa !77
  %11 = zext i1 %1 to i8
  store i8 %11, ptr %6, align 1, !tbaa !82
  store ptr %2, ptr %7, align 8, !tbaa !4
  call void @llvm.lifetime.start.p0(i64 8, ptr %8) #8
  %12 = load ptr, ptr %5, align 8, !tbaa !77
  %13 = getelementptr inbounds nuw %struct._zend_execute_data, ptr %12, i32 0, i32 3
  %14 = load ptr, ptr %13, align 8, !tbaa !80
  store ptr %14, ptr %8, align 8, !tbaa !75
  call void @llvm.lifetime.start.p0(i64 8, ptr %9) #8
  %15 = load ptr, ptr %8, align 8, !tbaa !75
  %16 = getelementptr inbounds nuw %struct.anon.7, ptr %15, i32 0, i32 10
  %17 = load ptr, ptr %16, align 8, !tbaa !35
  store ptr %17, ptr %9, align 8, !tbaa !4
  %18 = load ptr, ptr %8, align 8, !tbaa !75
  %19 = getelementptr inbounds nuw %struct.anon.7, ptr %18, i32 0, i32 2
  %20 = load i32, ptr %19, align 4, !tbaa !35
  %21 = load i8, ptr %6, align 1, !tbaa !82, !range !90, !noundef !91
  %22 = trunc i8 %21 to i1
  %23 = select i1 %22, i32 0, i32 16777216
  %24 = or i32 262144, %23
  %25 = and i32 %20, %24
  %26 = icmp ne i32 %25, 0
  br i1 %26, label %27, label %28

27:                                               ; preds = %3
  store i1 true, ptr %4, align 1
  store i32 1, ptr %10, align 4
  br label %63

28:                                               ; preds = %3
  %29 = load ptr, ptr %9, align 8, !tbaa !4
  %30 = icmp ne ptr %29, null
  br i1 %30, label %32, label %31

31:                                               ; preds = %28
  store i1 true, ptr %4, align 1
  store i32 1, ptr %10, align 4
  br label %63

32:                                               ; preds = %28
  %33 = load ptr, ptr %9, align 8, !tbaa !4
  %34 = ptrtoint ptr %33 to i64
  %35 = and i64 %34, 1
  %36 = icmp ne i64 %35, 0
  br i1 %36, label %37, label %43

37:                                               ; preds = %32
  %38 = load ptr, ptr getelementptr inbounds nuw (%struct._zend_compiler_globals, ptr @compiler_globals, i32 0, i32 37), align 8, !tbaa !76
  %39 = load ptr, ptr %9, align 8, !tbaa !4
  %40 = ptrtoint ptr %39 to i64
  %41 = getelementptr inbounds i8, ptr %38, i64 %40
  %42 = load ptr, ptr %41, align 8, !tbaa !4
  br label %45

43:                                               ; preds = %32
  %44 = load ptr, ptr %9, align 8, !tbaa !4
  br label %45

45:                                               ; preds = %43, %37
  %46 = phi ptr [ %42, %37 ], [ %44, %43 ]
  %47 = load ptr, ptr %8, align 8, !tbaa !75
  %48 = load i8, ptr %47, align 8, !tbaa !35
  %49 = zext i8 %48 to i32
  %50 = icmp ne i32 %49, 1
  br i1 %50, label %51, label %53

51:                                               ; preds = %45
  %52 = load i32, ptr @zend_observer_fcall_op_array_extension, align 4, !tbaa !8
  br label %55

53:                                               ; preds = %45
  %54 = load i32, ptr @zend_observer_fcall_internal_function_extension, align 4, !tbaa !8
  br label %55

55:                                               ; preds = %53, %51
  %56 = phi i32 [ %52, %51 ], [ %54, %53 ]
  %57 = sext i32 %56 to i64
  %58 = getelementptr inbounds ptr, ptr %46, i64 %57
  %59 = load ptr, ptr %7, align 8, !tbaa !4
  store ptr %58, ptr %59, align 8, !tbaa !4
  %60 = load ptr, ptr %7, align 8, !tbaa !4
  %61 = load ptr, ptr %60, align 8, !tbaa !4
  %62 = call zeroext i1 @zend_observer_handler_is_unobserved(ptr noundef %61)
  store i1 %62, ptr %4, align 1
  store i32 1, ptr %10, align 4
  br label %63

63:                                               ; preds = %55, %31, %27
  call void @llvm.lifetime.end.p0(i64 8, ptr %9) #8
  call void @llvm.lifetime.end.p0(i64 8, ptr %8) #8
  %64 = load i1, ptr %4, align 1
  ret i1 %64
}

; Function Attrs: alwaysinline nounwind uwtable
define internal void @zend_observer_fcall_begin_specialized(ptr noundef %0, i1 noundef zeroext %1) #3 {
  %3 = alloca ptr, align 8
  %4 = alloca i8, align 1
  %5 = alloca ptr, align 8
  store ptr %0, ptr %3, align 8, !tbaa !77
  %6 = zext i1 %1 to i8
  store i8 %6, ptr %4, align 1, !tbaa !82
  call void @llvm.lifetime.start.p0(i64 8, ptr %5) #8
  %7 = load ptr, ptr %3, align 8, !tbaa !77
  %8 = load i8, ptr %4, align 1, !tbaa !82, !range !90, !noundef !91
  %9 = trunc i8 %8 to i1
  %10 = call zeroext i1 @zend_observer_fcall_has_no_observers(ptr noundef %7, i1 noundef zeroext %9, ptr noundef %5)
  br i1 %10, label %14, label %11

11:                                               ; preds = %2
  %12 = load ptr, ptr %3, align 8, !tbaa !77
  %13 = load ptr, ptr %5, align 8, !tbaa !4
  call void @zend_observer_fcall_begin_prechecked(ptr noundef %12, ptr noundef %13)
  br label %14

14:                                               ; preds = %11, %2
  call void @llvm.lifetime.end.p0(i64 8, ptr %5) #8
  ret void
}

; Function Attrs: nounwind uwtable
define internal void @_zend_observe_fcall_begin(ptr noundef %0) #0 {
  %2 = alloca ptr, align 8
  store ptr %0, ptr %2, align 8, !tbaa !77
  %3 = load i32, ptr @zend_observer_fcall_op_array_extension, align 4, !tbaa !8
  %4 = icmp ne i32 %3, -1
  br i1 %4, label %6, label %5

5:                                                ; preds = %1
  br label %8

6:                                                ; preds = %1
  %7 = load ptr, ptr %2, align 8, !tbaa !77
  call void @zend_observer_fcall_begin_specialized(ptr noundef %7, i1 noundef zeroext true)
  br label %8

8:                                                ; preds = %6, %5
  ret void
}

; Function Attrs: nounwind uwtable
define dso_local void @zend_observer_generator_resume(ptr noundef %0) #0 {
  %2 = alloca ptr, align 8
  store ptr %0, ptr %2, align 8, !tbaa !77
  %3 = load ptr, ptr %2, align 8, !tbaa !77
  call void @_zend_observe_fcall_begin(ptr noundef %3)
  ret void
}