; Function Attrs: nounwind uwtable
define dso_local void @zend_observer_generator_resume(ptr noundef %0) local_unnamed_addr #0 {
  %2 = load i32, ptr @zend_observer_fcall_op_array_extension, align 4, !tbaa !8
  %.not.i = icmp eq i32 %2, -1
  br i1 %.not.i, label %_zend_observe_fcall_begin.exit, label %3

3:                                                ; preds = %1
  %4 = getelementptr inbounds nuw i8, ptr %0, i64 24
  %5 = load ptr, ptr %4, align 8, !tbaa !69
  %6 = getelementptr inbounds nuw i8, ptr %5, i64 56
  %7 = load ptr, ptr %6, align 8, !tbaa !34
  %8 = getelementptr inbounds nuw i8, ptr %5, i64 4
  %9 = load i32, ptr %8, align 4, !tbaa !34
  %10 = and i32 %9, 262144
  %.not.i.i = icmp ne i32 %10, 0
  %.not12.i.i = icmp eq ptr %7, null
  %or.cond.i.i = select i1 %.not.i.i, i1 true, i1 %.not12.i.i
  br i1 %or.cond.i.i, label %_zend_observe_fcall_begin.exit, label %11

11:                                               ; preds = %3
  %12 = ptrtoint ptr %7 to i64
  %13 = and i64 %12, 1
  %.not13.i.i = icmp eq i64 %13, 0
  br i1 %.not13.i.i, label %zend_observer_fcall_has_no_observers.exit.i, label %14

14:                                               ; preds = %11
  %15 = load ptr, ptr getelementptr inbounds nuw (i8, ptr @compiler_globals, i64 512), align 8, !tbaa !68
  %16 = getelementptr inbounds i8, ptr %15, i64 %12
  %17 = load ptr, ptr %16, align 8, !tbaa !4
  br label %zend_observer_fcall_has_no_observers.exit.i

zend_observer_fcall_has_no_observers.exit.i:      ; preds = %14, %11
  %18 = phi ptr [ %17, %14 ], [ %7, %11 ]
  %19 = load i8, ptr %5, align 8, !tbaa !34
  %.not14.i.i = icmp eq i8 %19, 1
  %20 = load i32, ptr @zend_observer_fcall_internal_function_extension, align 4
  %21 = select i1 %.not14.i.i, i32 %20, i32 %2
  %22 = sext i32 %21 to i64
  %23 = getelementptr inbounds ptr, ptr %18, i64 %22
  %24 = load ptr, ptr %23, align 8, !tbaa !4
  %25 = icmp eq ptr %24, inttoptr (i64 3 to ptr)
  br i1 %25, label %_zend_observe_fcall_begin.exit, label %26

26:                                               ; preds = %zend_observer_fcall_has_no_observers.exit.i
  tail call void @zend_observer_fcall_begin_prechecked(ptr noundef nonnull %0, ptr noundef nonnull %23)
  br label %_zend_observe_fcall_begin.exit

_zend_observe_fcall_begin.exit:                   ; preds = %1, %3, %zend_observer_fcall_has_no_observers.exit.i, %26
  ret void
}